
APP_21_TIMERS-test.elf:     file format elf32-avr

Sections:
Idx Name          Size      VMA       LMA       File off  Algn
  0 .text         000006fc  00000000  00000000  00000094  2**1
                  CONTENTS, ALLOC, LOAD, READONLY, CODE
  1 .data         00000018  00800060  000006fc  00000790  2**0
                  CONTENTS, ALLOC, LOAD, DATA
  2 .bss          00000012  00800078  00800078  000007a8  2**0
                  ALLOC

Disassembly of section .text:

00000000 <__vectors>:
   0:	0c 94 2a 00 	jmp	0x54	; 0x54 <__ctors_end>
   4:	0c 94 47 00 	jmp	0x8e	; 0x8e <__bad_interrupt>
   8:	0c 94 47 00 	jmp	0x8e	; 0x8e <__bad_interrupt>
   c:	0c 94 47 00 	jmp	0x8e	; 0x8e <__bad_interrupt>
  10:	0c 94 d1 01 	jmp	0x3a2	; 0x3a2 <__vector_4>
  14:	0c 94 a8 01 	jmp	0x350	; 0x350 <__vector_5>
  18:	0c 94 47 00 	jmp	0x8e	; 0x8e <__bad_interrupt>
  1c:	0c 94 7f 01 	jmp	0x2fe	; 0x2fe <__vector_7>
  20:	0c 94 56 01 	jmp	0x2ac	; 0x2ac <__vector_8>
  24:	0c 94 2d 01 	jmp	0x25a	; 0x25a <__vector_9>
  28:	0c 94 04 01 	jmp	0x208	; 0x208 <__vector_10>
  2c:	0c 94 db 00 	jmp	0x1b6	; 0x1b6 <__vector_11>
  30:	0c 94 47 00 	jmp	0x8e	; 0x8e <__bad_interrupt>
  34:	0c 94 47 00 	jmp	0x8e	; 0x8e <__bad_interrupt>
  38:	0c 94 47 00 	jmp	0x8e	; 0x8e <__bad_interrupt>
  3c:	0c 94 47 00 	jmp	0x8e	; 0x8e <__bad_interrupt>
  40:	0c 94 47 00 	jmp	0x8e	; 0x8e <__bad_interrupt>
  44:	0c 94 47 00 	jmp	0x8e	; 0x8e <__bad_interrupt>
  48:	0c 94 47 00 	jmp	0x8e	; 0x8e <__bad_interrupt>
  4c:	0c 94 47 00 	jmp	0x8e	; 0x8e <__bad_interrupt>
  50:	0c 94 47 00 	jmp	0x8e	; 0x8e <__bad_interrupt>

00000054 <__ctors_end>:
  54:	11 24       	eor	r1, r1
  56:	1f be       	out	0x3f, r1	; 63
  58:	cf e5       	ldi	r28, 0x5F	; 95
  5a:	d8 e0       	ldi	r29, 0x08	; 8
  5c:	de bf       	out	0x3e, r29	; 62
  5e:	cd bf       	out	0x3d, r28	; 61

00000060 <__do_copy_data>:
  60:	10 e0       	ldi	r17, 0x00	; 0
  62:	a0 e6       	ldi	r26, 0x60	; 96
  64:	b0 e0       	ldi	r27, 0x00	; 0
  66:	ec ef       	ldi	r30, 0xFC	; 252
  68:	f6 e0       	ldi	r31, 0x06	; 6
  6a:	02 c0       	rjmp	.+4      	; 0x70 <.do_copy_data_start>

0000006c <.do_copy_data_loop>:
  6c:	05 90       	lpm	r0, Z+
  6e:	0d 92       	st	X+, r0

00000070 <.do_copy_data_start>:
  70:	a8 37       	cpi	r26, 0x78	; 120
  72:	b1 07       	cpc	r27, r17
  74:	d9 f7       	brne	.-10     	; 0x6c <.do_copy_data_loop>

00000076 <__do_clear_bss>:
  76:	10 e0       	ldi	r17, 0x00	; 0
  78:	a8 e7       	ldi	r26, 0x78	; 120
  7a:	b0 e0       	ldi	r27, 0x00	; 0
  7c:	01 c0       	rjmp	.+2      	; 0x80 <.do_clear_bss_start>

0000007e <.do_clear_bss_loop>:
  7e:	1d 92       	st	X+, r1

00000080 <.do_clear_bss_start>:
  80:	aa 38       	cpi	r26, 0x8A	; 138
  82:	b1 07       	cpc	r27, r17
  84:	e1 f7       	brne	.-8      	; 0x7e <.do_clear_bss_loop>
  86:	0e 94 18 02 	call	0x430	; 0x430 <main>
  8a:	0c 94 7c 03 	jmp	0x6f8	; 0x6f8 <_exit>

0000008e <__bad_interrupt>:
  8e:	0c 94 00 00 	jmp	0	; 0x0 <__vectors>

00000092 <TIMER_init>:
  92:	90 93 79 00 	sts	0x0079, r25
  96:	80 93 78 00 	sts	0x0078, r24
  9a:	08 95       	ret

0000009c <TIMER_set_callback>:
  9c:	87 30       	cpi	r24, 0x07	; 7
  9e:	40 f4       	brcc	.+16     	; 0xb0 <TIMER_set_callback+0x14>
  a0:	e8 2f       	mov	r30, r24
  a2:	f0 e0       	ldi	r31, 0x00	; 0
  a4:	ee 0f       	add	r30, r30
  a6:	ff 1f       	adc	r31, r31
  a8:	e6 58       	subi	r30, 0x86	; 134
  aa:	ff 4f       	sbci	r31, 0xFF	; 255
  ac:	71 83       	std	Z+1, r23	; 0x01
  ae:	60 83       	st	Z, r22
  b0:	08 95       	ret

000000b2 <TIMER_config>:
  b2:	a0 91 78 00 	lds	r26, 0x0078
  b6:	b0 91 79 00 	lds	r27, 0x0079
  ba:	10 97       	sbiw	r26, 0x00	; 0
  bc:	09 f4       	brne	.+2      	; 0xc0 <TIMER_config+0xe>
  be:	62 c0       	rjmp	.+196    	; 0x184 <TIMER_config+0xd2>
  c0:	2c 91       	ld	r18, X
  c2:	27 70       	andi	r18, 0x07	; 7
  c4:	82 2f       	mov	r24, r18
  c6:	90 e0       	ldi	r25, 0x00	; 0
  c8:	02 97       	sbiw	r24, 0x02	; 2
  ca:	64 f5       	brge	.+88     	; 0x124 <TIMER_config+0x72>
  cc:	11 96       	adiw	r26, 0x01	; 1
  ce:	ed 91       	ld	r30, X+
  d0:	fc 91       	ld	r31, X
  d2:	12 97       	sbiw	r26, 0x02	; 2
  d4:	80 81       	ld	r24, Z
  d6:	82 bf       	out	0x32, r24	; 50
  d8:	81 81       	ldd	r24, Z+1	; 0x01
  da:	8c bf       	out	0x3c, r24	; 60
  dc:	83 b7       	in	r24, 0x33	; 51
  de:	13 be       	out	0x33, r1	; 51
  e0:	89 b7       	in	r24, 0x39	; 57
  e2:	8c 7f       	andi	r24, 0xFC	; 252
  e4:	89 bf       	out	0x39, r24	; 57
  e6:	8c 91       	ld	r24, X
  e8:	87 70       	andi	r24, 0x07	; 7
  ea:	29 f4       	brne	.+10     	; 0xf6 <TIMER_config+0x44>
  ec:	83 b7       	in	r24, 0x33	; 51
  ee:	83 bf       	out	0x33, r24	; 51
  f0:	89 b7       	in	r24, 0x39	; 57
  f2:	81 60       	ori	r24, 0x01	; 1
  f4:	05 c0       	rjmp	.+10     	; 0x100 <TIMER_config+0x4e>
  f6:	83 b7       	in	r24, 0x33	; 51
  f8:	88 60       	ori	r24, 0x08	; 8
  fa:	83 bf       	out	0x33, r24	; 51
  fc:	89 b7       	in	r24, 0x39	; 57
  fe:	82 60       	ori	r24, 0x02	; 2
 100:	89 bf       	out	0x39, r24	; 57
 102:	93 b7       	in	r25, 0x33	; 51
 104:	8c 91       	ld	r24, X
 106:	88 0f       	add	r24, r24
 108:	80 73       	andi	r24, 0x30	; 48
 10a:	89 2b       	or	r24, r25
 10c:	83 bf       	out	0x33, r24	; 51
 10e:	93 b7       	in	r25, 0x33	; 51
 110:	8c 91       	ld	r24, X
 112:	82 95       	swap	r24
 114:	86 95       	lsr	r24
 116:	87 70       	andi	r24, 0x07	; 7
 118:	89 2b       	or	r24, r25
 11a:	83 bf       	out	0x33, r24	; 51
 11c:	8f b7       	in	r24, 0x3f	; 63
 11e:	80 68       	ori	r24, 0x80	; 128
 120:	8f bf       	out	0x3f, r24	; 63
 122:	08 95       	ret
 124:	2a 5f       	subi	r18, 0xFA	; 250
 126:	27 70       	andi	r18, 0x07	; 7
 128:	23 30       	cpi	r18, 0x03	; 3
 12a:	60 f1       	brcs	.+88     	; 0x184 <TIMER_config+0xd2>
 12c:	11 96       	adiw	r26, 0x01	; 1
 12e:	ed 91       	ld	r30, X+
 130:	fc 91       	ld	r31, X
 132:	12 97       	sbiw	r26, 0x02	; 2
 134:	80 81       	ld	r24, Z
 136:	84 bd       	out	0x24, r24	; 36
 138:	81 81       	ldd	r24, Z+1	; 0x01
 13a:	83 bd       	out	0x23, r24	; 35
 13c:	85 b5       	in	r24, 0x25	; 37
 13e:	15 bc       	out	0x25, r1	; 37
 140:	89 b7       	in	r24, 0x39	; 57
 142:	8f 73       	andi	r24, 0x3F	; 63
 144:	89 bf       	out	0x39, r24	; 57
 146:	8c 91       	ld	r24, X
 148:	87 70       	andi	r24, 0x07	; 7
 14a:	85 30       	cpi	r24, 0x05	; 5
 14c:	29 f4       	brne	.+10     	; 0x158 <TIMER_config+0xa6>
 14e:	85 b5       	in	r24, 0x25	; 37
 150:	85 bd       	out	0x25, r24	; 37
 152:	89 b7       	in	r24, 0x39	; 57
 154:	80 64       	ori	r24, 0x40	; 64
 156:	05 c0       	rjmp	.+10     	; 0x162 <TIMER_config+0xb0>
 158:	85 b5       	in	r24, 0x25	; 37
 15a:	88 60       	ori	r24, 0x08	; 8
 15c:	85 bd       	out	0x25, r24	; 37
 15e:	89 b7       	in	r24, 0x39	; 57
 160:	80 68       	ori	r24, 0x80	; 128
 162:	89 bf       	out	0x39, r24	; 57
 164:	95 b5       	in	r25, 0x25	; 37
 166:	8c 91       	ld	r24, X
 168:	88 0f       	add	r24, r24
 16a:	80 73       	andi	r24, 0x30	; 48
 16c:	89 2b       	or	r24, r25
 16e:	85 bd       	out	0x25, r24	; 37
 170:	95 b5       	in	r25, 0x25	; 37
 172:	8c 91       	ld	r24, X
 174:	82 95       	swap	r24
 176:	86 95       	lsr	r24
 178:	87 70       	andi	r24, 0x07	; 7
 17a:	89 2b       	or	r24, r25
 17c:	85 bd       	out	0x25, r24	; 37
 17e:	8f b7       	in	r24, 0x3f	; 63
 180:	80 68       	ori	r24, 0x80	; 128
 182:	8f bf       	out	0x3f, r24	; 63
 184:	08 95       	ret

00000186 <TIMER_stop>:
 186:	e0 91 78 00 	lds	r30, 0x0078
 18a:	f0 91 79 00 	lds	r31, 0x0079
 18e:	30 97       	sbiw	r30, 0x00	; 0
 190:	89 f0       	breq	.+34     	; 0x1b4 <TIMER_stop+0x2e>
 192:	20 81       	ld	r18, Z
 194:	27 70       	andi	r18, 0x07	; 7
 196:	82 2f       	mov	r24, r18
 198:	90 e0       	ldi	r25, 0x00	; 0
 19a:	02 97       	sbiw	r24, 0x02	; 2
 19c:	24 f4       	brge	.+8      	; 0x1a6 <TIMER_stop+0x20>
 19e:	83 b7       	in	r24, 0x33	; 51
 1a0:	88 7f       	andi	r24, 0xF8	; 248
 1a2:	83 bf       	out	0x33, r24	; 51
 1a4:	08 95       	ret
 1a6:	2a 5f       	subi	r18, 0xFA	; 250
 1a8:	27 70       	andi	r18, 0x07	; 7
 1aa:	23 30       	cpi	r18, 0x03	; 3
 1ac:	18 f0       	brcs	.+6      	; 0x1b4 <TIMER_stop+0x2e>
 1ae:	85 b5       	in	r24, 0x25	; 37
 1b0:	88 7f       	andi	r24, 0xF8	; 248
 1b2:	85 bd       	out	0x25, r24	; 37
 1b4:	08 95       	ret

000001b6 <__vector_11>:
 1b6:	1f 92       	push	r1
 1b8:	0f 92       	push	r0
 1ba:	0f b6       	in	r0, 0x3f	; 63
 1bc:	0f 92       	push	r0
 1be:	11 24       	eor	r1, r1
 1c0:	2f 93       	push	r18
 1c2:	3f 93       	push	r19
 1c4:	4f 93       	push	r20
 1c6:	5f 93       	push	r21
 1c8:	6f 93       	push	r22
 1ca:	7f 93       	push	r23
 1cc:	8f 93       	push	r24
 1ce:	9f 93       	push	r25
 1d0:	af 93       	push	r26
 1d2:	bf 93       	push	r27
 1d4:	ef 93       	push	r30
 1d6:	ff 93       	push	r31
 1d8:	e0 91 7a 00 	lds	r30, 0x007A
 1dc:	f0 91 7b 00 	lds	r31, 0x007B
 1e0:	30 97       	sbiw	r30, 0x00	; 0
 1e2:	09 f0       	breq	.+2      	; 0x1e6 <__vector_11+0x30>
 1e4:	09 95       	icall
 1e6:	ff 91       	pop	r31
 1e8:	ef 91       	pop	r30
 1ea:	bf 91       	pop	r27
 1ec:	af 91       	pop	r26
 1ee:	9f 91       	pop	r25
 1f0:	8f 91       	pop	r24
 1f2:	7f 91       	pop	r23
 1f4:	6f 91       	pop	r22
 1f6:	5f 91       	pop	r21
 1f8:	4f 91       	pop	r20
 1fa:	3f 91       	pop	r19
 1fc:	2f 91       	pop	r18
 1fe:	0f 90       	pop	r0
 200:	0f be       	out	0x3f, r0	; 63
 202:	0f 90       	pop	r0
 204:	1f 90       	pop	r1
 206:	18 95       	reti

00000208 <__vector_10>:
 208:	1f 92       	push	r1
 20a:	0f 92       	push	r0
 20c:	0f b6       	in	r0, 0x3f	; 63
 20e:	0f 92       	push	r0
 210:	11 24       	eor	r1, r1
 212:	2f 93       	push	r18
 214:	3f 93       	push	r19
 216:	4f 93       	push	r20
 218:	5f 93       	push	r21
 21a:	6f 93       	push	r22
 21c:	7f 93       	push	r23
 21e:	8f 93       	push	r24
 220:	9f 93       	push	r25
 222:	af 93       	push	r26
 224:	bf 93       	push	r27
 226:	ef 93       	push	r30
 228:	ff 93       	push	r31
 22a:	e0 91 7c 00 	lds	r30, 0x007C
 22e:	f0 91 7d 00 	lds	r31, 0x007D
 232:	30 97       	sbiw	r30, 0x00	; 0
 234:	09 f0       	breq	.+2      	; 0x238 <__vector_10+0x30>
 236:	09 95       	icall
 238:	ff 91       	pop	r31
 23a:	ef 91       	pop	r30
 23c:	bf 91       	pop	r27
 23e:	af 91       	pop	r26
 240:	9f 91       	pop	r25
 242:	8f 91       	pop	r24
 244:	7f 91       	pop	r23
 246:	6f 91       	pop	r22
 248:	5f 91       	pop	r21
 24a:	4f 91       	pop	r20
 24c:	3f 91       	pop	r19
 24e:	2f 91       	pop	r18
 250:	0f 90       	pop	r0
 252:	0f be       	out	0x3f, r0	; 63
 254:	0f 90       	pop	r0
 256:	1f 90       	pop	r1
 258:	18 95       	reti

0000025a <__vector_9>:
 25a:	1f 92       	push	r1
 25c:	0f 92       	push	r0
 25e:	0f b6       	in	r0, 0x3f	; 63
 260:	0f 92       	push	r0
 262:	11 24       	eor	r1, r1
 264:	2f 93       	push	r18
 266:	3f 93       	push	r19
 268:	4f 93       	push	r20
 26a:	5f 93       	push	r21
 26c:	6f 93       	push	r22
 26e:	7f 93       	push	r23
 270:	8f 93       	push	r24
 272:	9f 93       	push	r25
 274:	af 93       	push	r26
 276:	bf 93       	push	r27
 278:	ef 93       	push	r30
 27a:	ff 93       	push	r31
 27c:	e0 91 7e 00 	lds	r30, 0x007E
 280:	f0 91 7f 00 	lds	r31, 0x007F
 284:	30 97       	sbiw	r30, 0x00	; 0
 286:	09 f0       	breq	.+2      	; 0x28a <__vector_9+0x30>
 288:	09 95       	icall
 28a:	ff 91       	pop	r31
 28c:	ef 91       	pop	r30
 28e:	bf 91       	pop	r27
 290:	af 91       	pop	r26
 292:	9f 91       	pop	r25
 294:	8f 91       	pop	r24
 296:	7f 91       	pop	r23
 298:	6f 91       	pop	r22
 29a:	5f 91       	pop	r21
 29c:	4f 91       	pop	r20
 29e:	3f 91       	pop	r19
 2a0:	2f 91       	pop	r18
 2a2:	0f 90       	pop	r0
 2a4:	0f be       	out	0x3f, r0	; 63
 2a6:	0f 90       	pop	r0
 2a8:	1f 90       	pop	r1
 2aa:	18 95       	reti

000002ac <__vector_8>:
 2ac:	1f 92       	push	r1
 2ae:	0f 92       	push	r0
 2b0:	0f b6       	in	r0, 0x3f	; 63
 2b2:	0f 92       	push	r0
 2b4:	11 24       	eor	r1, r1
 2b6:	2f 93       	push	r18
 2b8:	3f 93       	push	r19
 2ba:	4f 93       	push	r20
 2bc:	5f 93       	push	r21
 2be:	6f 93       	push	r22
 2c0:	7f 93       	push	r23
 2c2:	8f 93       	push	r24
 2c4:	9f 93       	push	r25
 2c6:	af 93       	push	r26
 2c8:	bf 93       	push	r27
 2ca:	ef 93       	push	r30
 2cc:	ff 93       	push	r31
 2ce:	e0 91 80 00 	lds	r30, 0x0080
 2d2:	f0 91 81 00 	lds	r31, 0x0081
 2d6:	30 97       	sbiw	r30, 0x00	; 0
 2d8:	09 f0       	breq	.+2      	; 0x2dc <__vector_8+0x30>
 2da:	09 95       	icall
 2dc:	ff 91       	pop	r31
 2de:	ef 91       	pop	r30
 2e0:	bf 91       	pop	r27
 2e2:	af 91       	pop	r26
 2e4:	9f 91       	pop	r25
 2e6:	8f 91       	pop	r24
 2e8:	7f 91       	pop	r23
 2ea:	6f 91       	pop	r22
 2ec:	5f 91       	pop	r21
 2ee:	4f 91       	pop	r20
 2f0:	3f 91       	pop	r19
 2f2:	2f 91       	pop	r18
 2f4:	0f 90       	pop	r0
 2f6:	0f be       	out	0x3f, r0	; 63
 2f8:	0f 90       	pop	r0
 2fa:	1f 90       	pop	r1
 2fc:	18 95       	reti

000002fe <__vector_7>:
 2fe:	1f 92       	push	r1
 300:	0f 92       	push	r0
 302:	0f b6       	in	r0, 0x3f	; 63
 304:	0f 92       	push	r0
 306:	11 24       	eor	r1, r1
 308:	2f 93       	push	r18
 30a:	3f 93       	push	r19
 30c:	4f 93       	push	r20
 30e:	5f 93       	push	r21
 310:	6f 93       	push	r22
 312:	7f 93       	push	r23
 314:	8f 93       	push	r24
 316:	9f 93       	push	r25
 318:	af 93       	push	r26
 31a:	bf 93       	push	r27
 31c:	ef 93       	push	r30
 31e:	ff 93       	push	r31
 320:	e0 91 82 00 	lds	r30, 0x0082
 324:	f0 91 83 00 	lds	r31, 0x0083
 328:	30 97       	sbiw	r30, 0x00	; 0
 32a:	09 f0       	breq	.+2      	; 0x32e <__vector_7+0x30>
 32c:	09 95       	icall
 32e:	ff 91       	pop	r31
 330:	ef 91       	pop	r30
 332:	bf 91       	pop	r27
 334:	af 91       	pop	r26
 336:	9f 91       	pop	r25
 338:	8f 91       	pop	r24
 33a:	7f 91       	pop	r23
 33c:	6f 91       	pop	r22
 33e:	5f 91       	pop	r21
 340:	4f 91       	pop	r20
 342:	3f 91       	pop	r19
 344:	2f 91       	pop	r18
 346:	0f 90       	pop	r0
 348:	0f be       	out	0x3f, r0	; 63
 34a:	0f 90       	pop	r0
 34c:	1f 90       	pop	r1
 34e:	18 95       	reti

00000350 <__vector_5>:
 350:	1f 92       	push	r1
 352:	0f 92       	push	r0
 354:	0f b6       	in	r0, 0x3f	; 63
 356:	0f 92       	push	r0
 358:	11 24       	eor	r1, r1
 35a:	2f 93       	push	r18
 35c:	3f 93       	push	r19
 35e:	4f 93       	push	r20
 360:	5f 93       	push	r21
 362:	6f 93       	push	r22
 364:	7f 93       	push	r23
 366:	8f 93       	push	r24
 368:	9f 93       	push	r25
 36a:	af 93       	push	r26
 36c:	bf 93       	push	r27
 36e:	ef 93       	push	r30
 370:	ff 93       	push	r31
 372:	e0 91 84 00 	lds	r30, 0x0084
 376:	f0 91 85 00 	lds	r31, 0x0085
 37a:	30 97       	sbiw	r30, 0x00	; 0
 37c:	09 f0       	breq	.+2      	; 0x380 <__vector_5+0x30>
 37e:	09 95       	icall
 380:	ff 91       	pop	r31
 382:	ef 91       	pop	r30
 384:	bf 91       	pop	r27
 386:	af 91       	pop	r26
 388:	9f 91       	pop	r25
 38a:	8f 91       	pop	r24
 38c:	7f 91       	pop	r23
 38e:	6f 91       	pop	r22
 390:	5f 91       	pop	r21
 392:	4f 91       	pop	r20
 394:	3f 91       	pop	r19
 396:	2f 91       	pop	r18
 398:	0f 90       	pop	r0
 39a:	0f be       	out	0x3f, r0	; 63
 39c:	0f 90       	pop	r0
 39e:	1f 90       	pop	r1
 3a0:	18 95       	reti

000003a2 <__vector_4>:
 3a2:	1f 92       	push	r1
 3a4:	0f 92       	push	r0
 3a6:	0f b6       	in	r0, 0x3f	; 63
 3a8:	0f 92       	push	r0
 3aa:	11 24       	eor	r1, r1
 3ac:	2f 93       	push	r18
 3ae:	3f 93       	push	r19
 3b0:	4f 93       	push	r20
 3b2:	5f 93       	push	r21
 3b4:	6f 93       	push	r22
 3b6:	7f 93       	push	r23
 3b8:	8f 93       	push	r24
 3ba:	9f 93       	push	r25
 3bc:	af 93       	push	r26
 3be:	bf 93       	push	r27
 3c0:	ef 93       	push	r30
 3c2:	ff 93       	push	r31
 3c4:	e0 91 86 00 	lds	r30, 0x0086
 3c8:	f0 91 87 00 	lds	r31, 0x0087
 3cc:	30 97       	sbiw	r30, 0x00	; 0
 3ce:	09 f0       	breq	.+2      	; 0x3d2 <__vector_4+0x30>
 3d0:	09 95       	icall
 3d2:	ff 91       	pop	r31
 3d4:	ef 91       	pop	r30
 3d6:	bf 91       	pop	r27
 3d8:	af 91       	pop	r26
 3da:	9f 91       	pop	r25
 3dc:	8f 91       	pop	r24
 3de:	7f 91       	pop	r23
 3e0:	6f 91       	pop	r22
 3e2:	5f 91       	pop	r21
 3e4:	4f 91       	pop	r20
 3e6:	3f 91       	pop	r19
 3e8:	2f 91       	pop	r18
 3ea:	0f 90       	pop	r0
 3ec:	0f be       	out	0x3f, r0	; 63
 3ee:	0f 90       	pop	r0
 3f0:	1f 90       	pop	r1
 3f2:	18 95       	reti

000003f4 <lde_toggle_2>:
 3f4:	80 91 88 00 	lds	r24, 0x0088
 3f8:	84 30       	cpi	r24, 0x04	; 4
 3fa:	39 f4       	brne	.+14     	; 0x40a <lde_toggle_2+0x16>
 3fc:	80 e0       	ldi	r24, 0x00	; 0
 3fe:	62 e0       	ldi	r22, 0x02	; 2
 400:	0e 94 22 03 	call	0x644	; 0x644 <DIO_void_toggle_pin>
 404:	10 92 88 00 	sts	0x0088, r1
 408:	08 95       	ret
 40a:	8f 5f       	subi	r24, 0xFF	; 255
 40c:	80 93 88 00 	sts	0x0088, r24
 410:	08 95       	ret

00000412 <lde_toggle_1>:
 412:	80 91 89 00 	lds	r24, 0x0089
 416:	84 30       	cpi	r24, 0x04	; 4
 418:	39 f4       	brne	.+14     	; 0x428 <lde_toggle_1+0x16>
 41a:	80 e0       	ldi	r24, 0x00	; 0
 41c:	61 e0       	ldi	r22, 0x01	; 1
 41e:	0e 94 22 03 	call	0x644	; 0x644 <DIO_void_toggle_pin>
 422:	10 92 89 00 	sts	0x0089, r1
 426:	08 95       	ret
 428:	8f 5f       	subi	r24, 0xFF	; 255
 42a:	80 93 89 00 	sts	0x0089, r24
 42e:	08 95       	ret

00000430 <main>:
 430:	0f 93       	push	r16
 432:	1f 93       	push	r17
 434:	df 93       	push	r29
 436:	cf 93       	push	r28
 438:	cd b7       	in	r28, 0x3d	; 61
 43a:	de b7       	in	r29, 0x3e	; 62
 43c:	28 97       	sbiw	r28, 0x08	; 8
 43e:	0f b6       	in	r0, 0x3f	; 63
 440:	f8 94       	cli
 442:	de bf       	out	0x3e, r29	; 62
 444:	0f be       	out	0x3f, r0	; 63
 446:	cd bf       	out	0x3d, r28	; 61
 448:	80 e0       	ldi	r24, 0x00	; 0
 44a:	61 e0       	ldi	r22, 0x01	; 1
 44c:	4f ef       	ldi	r20, 0xFF	; 255
 44e:	0e 94 83 02 	call	0x506	; 0x506 <DIO_void_set_pin_dir>
 452:	80 e0       	ldi	r24, 0x00	; 0
 454:	61 e0       	ldi	r22, 0x01	; 1
 456:	0e 94 f9 02 	call	0x5f2	; 0x5f2 <DIO_void_set_pin>
 45a:	80 e0       	ldi	r24, 0x00	; 0
 45c:	62 e0       	ldi	r22, 0x02	; 2
 45e:	4f ef       	ldi	r20, 0xFF	; 255
 460:	0e 94 83 02 	call	0x506	; 0x506 <DIO_void_set_pin_dir>
 464:	80 e0       	ldi	r24, 0x00	; 0
 466:	62 e0       	ldi	r22, 0x02	; 2
 468:	0e 94 f9 02 	call	0x5f2	; 0x5f2 <DIO_void_set_pin>
 46c:	81 e0       	ldi	r24, 0x01	; 1
 46e:	63 e0       	ldi	r22, 0x03	; 3
 470:	4f ef       	ldi	r20, 0xFF	; 255
 472:	0e 94 83 02 	call	0x506	; 0x506 <DIO_void_set_pin_dir>
 476:	83 e0       	ldi	r24, 0x03	; 3
 478:	67 e0       	ldi	r22, 0x07	; 7
 47a:	4f ef       	ldi	r20, 0xFF	; 255
 47c:	0e 94 83 02 	call	0x506	; 0x506 <DIO_void_set_pin_dir>
 480:	19 82       	std	Y+1, r1	; 0x01
 482:	86 e9       	ldi	r24, 0x96	; 150
 484:	8a 83       	std	Y+2, r24	; 0x02
 486:	89 e4       	ldi	r24, 0x49	; 73
 488:	8b 83       	std	Y+3, r24	; 0x03
 48a:	8e 01       	movw	r16, r28
 48c:	0f 5f       	subi	r16, 0xFF	; 255
 48e:	1f 4f       	sbci	r17, 0xFF	; 255
 490:	1d 83       	std	Y+5, r17	; 0x05
 492:	0c 83       	std	Y+4, r16	; 0x04
 494:	81 e0       	ldi	r24, 0x01	; 1
 496:	69 e0       	ldi	r22, 0x09	; 9
 498:	72 e0       	ldi	r23, 0x02	; 2
 49a:	0e 94 4e 00 	call	0x9c	; 0x9c <TIMER_set_callback>
 49e:	8e e4       	ldi	r24, 0x4E	; 78
 4a0:	8e 83       	std	Y+6, r24	; 0x06
 4a2:	18 87       	std	Y+8, r17	; 0x08
 4a4:	0f 83       	std	Y+7, r16	; 0x07
 4a6:	86 e0       	ldi	r24, 0x06	; 6
 4a8:	6a ef       	ldi	r22, 0xFA	; 250
 4aa:	71 e0       	ldi	r23, 0x01	; 1
 4ac:	0e 94 4e 00 	call	0x9c	; 0x9c <TIMER_set_callback>
 4b0:	ce 01       	movw	r24, r28
 4b2:	03 96       	adiw	r24, 0x03	; 3
 4b4:	0e 94 49 00 	call	0x92	; 0x92 <TIMER_init>
 4b8:	0e 94 59 00 	call	0xb2	; 0xb2 <TIMER_config>
 4bc:	ce 01       	movw	r24, r28
 4be:	06 96       	adiw	r24, 0x06	; 6
 4c0:	0e 94 49 00 	call	0x92	; 0x92 <TIMER_init>
 4c4:	0e 94 59 00 	call	0xb2	; 0xb2 <TIMER_config>
 4c8:	ff cf       	rjmp	.-2      	; 0x4c8 <main+0x98>

000004ca <DIO_void_set_port_dir>:
 4ca:	e8 2f       	mov	r30, r24
 4cc:	f0 e0       	ldi	r31, 0x00	; 0
 4ce:	ee 0f       	add	r30, r30
 4d0:	ff 1f       	adc	r31, r31
 4d2:	e0 59       	subi	r30, 0x90	; 144
 4d4:	ff 4f       	sbci	r31, 0xFF	; 255
 4d6:	01 90       	ld	r0, Z+
 4d8:	f0 81       	ld	r31, Z
 4da:	e0 2d       	mov	r30, r0
 4dc:	60 83       	st	Z, r22
 4de:	08 95       	ret

000004e0 <DIO_void_set_port_in_pullUp>:
 4e0:	e8 2f       	mov	r30, r24
 4e2:	f0 e0       	ldi	r31, 0x00	; 0
 4e4:	ee 0f       	add	r30, r30
 4e6:	ff 1f       	adc	r31, r31
 4e8:	df 01       	movw	r26, r30
 4ea:	a0 59       	subi	r26, 0x90	; 144
 4ec:	bf 4f       	sbci	r27, 0xFF	; 255
 4ee:	0d 90       	ld	r0, X+
 4f0:	bc 91       	ld	r27, X
 4f2:	a0 2d       	mov	r26, r0
 4f4:	1c 92       	st	X, r1
 4f6:	e8 59       	subi	r30, 0x98	; 152
 4f8:	ff 4f       	sbci	r31, 0xFF	; 255
 4fa:	01 90       	ld	r0, Z+
 4fc:	f0 81       	ld	r31, Z
 4fe:	e0 2d       	mov	r30, r0
 500:	8f ef       	ldi	r24, 0xFF	; 255
 502:	80 83       	st	Z, r24
 504:	08 95       	ret

00000506 <DIO_void_set_pin_dir>:
 506:	e8 2f       	mov	r30, r24
 508:	f0 e0       	ldi	r31, 0x00	; 0
 50a:	44 23       	and	r20, r20
 50c:	91 f0       	breq	.+36     	; 0x532 <DIO_void_set_pin_dir+0x2c>
 50e:	ee 0f       	add	r30, r30
 510:	ff 1f       	adc	r31, r31
 512:	e0 59       	subi	r30, 0x90	; 144
 514:	ff 4f       	sbci	r31, 0xFF	; 255
 516:	01 90       	ld	r0, Z+
 518:	f0 81       	ld	r31, Z
 51a:	e0 2d       	mov	r30, r0
 51c:	20 81       	ld	r18, Z
 51e:	81 e0       	ldi	r24, 0x01	; 1
 520:	90 e0       	ldi	r25, 0x00	; 0
 522:	02 c0       	rjmp	.+4      	; 0x528 <DIO_void_set_pin_dir+0x22>
 524:	88 0f       	add	r24, r24
 526:	99 1f       	adc	r25, r25
 528:	6a 95       	dec	r22
 52a:	e2 f7       	brpl	.-8      	; 0x524 <DIO_void_set_pin_dir+0x1e>
 52c:	28 2b       	or	r18, r24
 52e:	20 83       	st	Z, r18
 530:	08 95       	ret
 532:	ee 0f       	add	r30, r30
 534:	ff 1f       	adc	r31, r31
 536:	e0 59       	subi	r30, 0x90	; 144
 538:	ff 4f       	sbci	r31, 0xFF	; 255
 53a:	01 90       	ld	r0, Z+
 53c:	f0 81       	ld	r31, Z
 53e:	e0 2d       	mov	r30, r0
 540:	20 81       	ld	r18, Z
 542:	81 e0       	ldi	r24, 0x01	; 1
 544:	90 e0       	ldi	r25, 0x00	; 0
 546:	02 c0       	rjmp	.+4      	; 0x54c <DIO_void_set_pin_dir+0x46>
 548:	88 0f       	add	r24, r24
 54a:	99 1f       	adc	r25, r25
 54c:	6a 95       	dec	r22
 54e:	e2 f7       	brpl	.-8      	; 0x548 <DIO_void_set_pin_dir+0x42>
 550:	80 95       	com	r24
 552:	82 23       	and	r24, r18
 554:	80 83       	st	Z, r24
 556:	08 95       	ret

00000558 <DIO_void_set_pin_in_pullUP>:
 558:	a8 2f       	mov	r26, r24
 55a:	b0 e0       	ldi	r27, 0x00	; 0
 55c:	aa 0f       	add	r26, r26
 55e:	bb 1f       	adc	r27, r27
 560:	fd 01       	movw	r30, r26
 562:	e0 59       	subi	r30, 0x90	; 144
 564:	ff 4f       	sbci	r31, 0xFF	; 255
 566:	01 90       	ld	r0, Z+
 568:	f0 81       	ld	r31, Z
 56a:	e0 2d       	mov	r30, r0
 56c:	90 81       	ld	r25, Z
 56e:	21 e0       	ldi	r18, 0x01	; 1
 570:	30 e0       	ldi	r19, 0x00	; 0
 572:	02 c0       	rjmp	.+4      	; 0x578 <DIO_void_set_pin_in_pullUP+0x20>
 574:	22 0f       	add	r18, r18
 576:	33 1f       	adc	r19, r19
 578:	6a 95       	dec	r22
 57a:	e2 f7       	brpl	.-8      	; 0x574 <DIO_void_set_pin_in_pullUP+0x1c>
 57c:	82 2f       	mov	r24, r18
 57e:	80 95       	com	r24
 580:	89 23       	and	r24, r25
 582:	80 83       	st	Z, r24
 584:	a8 59       	subi	r26, 0x98	; 152
 586:	bf 4f       	sbci	r27, 0xFF	; 255
 588:	ed 91       	ld	r30, X+
 58a:	fc 91       	ld	r31, X
 58c:	80 81       	ld	r24, Z
 58e:	82 2b       	or	r24, r18
 590:	80 83       	st	Z, r24
 592:	08 95       	ret

00000594 <DIO_void_set_port>:
 594:	e8 2f       	mov	r30, r24
 596:	f0 e0       	ldi	r31, 0x00	; 0
 598:	ee 0f       	add	r30, r30
 59a:	ff 1f       	adc	r31, r31
 59c:	e8 59       	subi	r30, 0x98	; 152
 59e:	ff 4f       	sbci	r31, 0xFF	; 255
 5a0:	01 90       	ld	r0, Z+
 5a2:	f0 81       	ld	r31, Z
 5a4:	e0 2d       	mov	r30, r0
 5a6:	8f ef       	ldi	r24, 0xFF	; 255
 5a8:	80 83       	st	Z, r24
 5aa:	08 95       	ret

000005ac <DIO_void_clear_port>:
 5ac:	e8 2f       	mov	r30, r24
 5ae:	f0 e0       	ldi	r31, 0x00	; 0
 5b0:	ee 0f       	add	r30, r30
 5b2:	ff 1f       	adc	r31, r31
 5b4:	e8 59       	subi	r30, 0x98	; 152
 5b6:	ff 4f       	sbci	r31, 0xFF	; 255
 5b8:	01 90       	ld	r0, Z+
 5ba:	f0 81       	ld	r31, Z
 5bc:	e0 2d       	mov	r30, r0
 5be:	10 82       	st	Z, r1
 5c0:	08 95       	ret

000005c2 <DIO_void_toggle_port>:
 5c2:	e8 2f       	mov	r30, r24
 5c4:	f0 e0       	ldi	r31, 0x00	; 0
 5c6:	ee 0f       	add	r30, r30
 5c8:	ff 1f       	adc	r31, r31
 5ca:	e8 59       	subi	r30, 0x98	; 152
 5cc:	ff 4f       	sbci	r31, 0xFF	; 255
 5ce:	01 90       	ld	r0, Z+
 5d0:	f0 81       	ld	r31, Z
 5d2:	e0 2d       	mov	r30, r0
 5d4:	80 81       	ld	r24, Z
 5d6:	80 95       	com	r24
 5d8:	80 83       	st	Z, r24
 5da:	08 95       	ret

000005dc <DIO_void_assign_port>:
 5dc:	e8 2f       	mov	r30, r24
 5de:	f0 e0       	ldi	r31, 0x00	; 0
 5e0:	ee 0f       	add	r30, r30
 5e2:	ff 1f       	adc	r31, r31
 5e4:	e8 59       	subi	r30, 0x98	; 152
 5e6:	ff 4f       	sbci	r31, 0xFF	; 255
 5e8:	01 90       	ld	r0, Z+
 5ea:	f0 81       	ld	r31, Z
 5ec:	e0 2d       	mov	r30, r0
 5ee:	60 83       	st	Z, r22
 5f0:	08 95       	ret

000005f2 <DIO_void_set_pin>:
 5f2:	e8 2f       	mov	r30, r24
 5f4:	f0 e0       	ldi	r31, 0x00	; 0
 5f6:	ee 0f       	add	r30, r30
 5f8:	ff 1f       	adc	r31, r31
 5fa:	e8 59       	subi	r30, 0x98	; 152
 5fc:	ff 4f       	sbci	r31, 0xFF	; 255
 5fe:	01 90       	ld	r0, Z+
 600:	f0 81       	ld	r31, Z
 602:	e0 2d       	mov	r30, r0
 604:	20 81       	ld	r18, Z
 606:	81 e0       	ldi	r24, 0x01	; 1
 608:	90 e0       	ldi	r25, 0x00	; 0
 60a:	02 c0       	rjmp	.+4      	; 0x610 <DIO_void_set_pin+0x1e>
 60c:	88 0f       	add	r24, r24
 60e:	99 1f       	adc	r25, r25
 610:	6a 95       	dec	r22
 612:	e2 f7       	brpl	.-8      	; 0x60c <DIO_void_set_pin+0x1a>
 614:	28 2b       	or	r18, r24
 616:	20 83       	st	Z, r18
 618:	08 95       	ret

0000061a <DIO_void_clear_pin>:
 61a:	e8 2f       	mov	r30, r24
 61c:	f0 e0       	ldi	r31, 0x00	; 0
 61e:	ee 0f       	add	r30, r30
 620:	ff 1f       	adc	r31, r31
 622:	e8 59       	subi	r30, 0x98	; 152
 624:	ff 4f       	sbci	r31, 0xFF	; 255
 626:	01 90       	ld	r0, Z+
 628:	f0 81       	ld	r31, Z
 62a:	e0 2d       	mov	r30, r0
 62c:	20 81       	ld	r18, Z
 62e:	81 e0       	ldi	r24, 0x01	; 1
 630:	90 e0       	ldi	r25, 0x00	; 0
 632:	02 c0       	rjmp	.+4      	; 0x638 <DIO_void_clear_pin+0x1e>
 634:	88 0f       	add	r24, r24
 636:	99 1f       	adc	r25, r25
 638:	6a 95       	dec	r22
 63a:	e2 f7       	brpl	.-8      	; 0x634 <DIO_void_clear_pin+0x1a>
 63c:	80 95       	com	r24
 63e:	82 23       	and	r24, r18
 640:	80 83       	st	Z, r24
 642:	08 95       	ret

00000644 <DIO_void_toggle_pin>:
 644:	e8 2f       	mov	r30, r24
 646:	f0 e0       	ldi	r31, 0x00	; 0
 648:	ee 0f       	add	r30, r30
 64a:	ff 1f       	adc	r31, r31
 64c:	e8 59       	subi	r30, 0x98	; 152
 64e:	ff 4f       	sbci	r31, 0xFF	; 255
 650:	01 90       	ld	r0, Z+
 652:	f0 81       	ld	r31, Z
 654:	e0 2d       	mov	r30, r0
 656:	20 81       	ld	r18, Z
 658:	81 e0       	ldi	r24, 0x01	; 1
 65a:	90 e0       	ldi	r25, 0x00	; 0
 65c:	02 c0       	rjmp	.+4      	; 0x662 <DIO_void_toggle_pin+0x1e>
 65e:	88 0f       	add	r24, r24
 660:	99 1f       	adc	r25, r25
 662:	6a 95       	dec	r22
 664:	e2 f7       	brpl	.-8      	; 0x65e <DIO_void_toggle_pin+0x1a>
 666:	28 27       	eor	r18, r24
 668:	20 83       	st	Z, r18
 66a:	08 95       	ret

0000066c <DIO_void_assign_pin>:
 66c:	e8 2f       	mov	r30, r24
 66e:	f0 e0       	ldi	r31, 0x00	; 0
 670:	44 23       	and	r20, r20
 672:	91 f0       	breq	.+36     	; 0x698 <DIO_void_assign_pin+0x2c>
 674:	ee 0f       	add	r30, r30
 676:	ff 1f       	adc	r31, r31
 678:	e8 59       	subi	r30, 0x98	; 152
 67a:	ff 4f       	sbci	r31, 0xFF	; 255
 67c:	01 90       	ld	r0, Z+
 67e:	f0 81       	ld	r31, Z
 680:	e0 2d       	mov	r30, r0
 682:	20 81       	ld	r18, Z
 684:	81 e0       	ldi	r24, 0x01	; 1
 686:	90 e0       	ldi	r25, 0x00	; 0
 688:	02 c0       	rjmp	.+4      	; 0x68e <DIO_void_assign_pin+0x22>
 68a:	88 0f       	add	r24, r24
 68c:	99 1f       	adc	r25, r25
 68e:	6a 95       	dec	r22
 690:	e2 f7       	brpl	.-8      	; 0x68a <DIO_void_assign_pin+0x1e>
 692:	28 2b       	or	r18, r24
 694:	20 83       	st	Z, r18
 696:	08 95       	ret
 698:	ee 0f       	add	r30, r30
 69a:	ff 1f       	adc	r31, r31
 69c:	e8 59       	subi	r30, 0x98	; 152
 69e:	ff 4f       	sbci	r31, 0xFF	; 255
 6a0:	01 90       	ld	r0, Z+
 6a2:	f0 81       	ld	r31, Z
 6a4:	e0 2d       	mov	r30, r0
 6a6:	20 81       	ld	r18, Z
 6a8:	81 e0       	ldi	r24, 0x01	; 1
 6aa:	90 e0       	ldi	r25, 0x00	; 0
 6ac:	02 c0       	rjmp	.+4      	; 0x6b2 <DIO_void_assign_pin+0x46>
 6ae:	88 0f       	add	r24, r24
 6b0:	99 1f       	adc	r25, r25
 6b2:	6a 95       	dec	r22
 6b4:	e2 f7       	brpl	.-8      	; 0x6ae <DIO_void_assign_pin+0x42>
 6b6:	80 95       	com	r24
 6b8:	82 23       	and	r24, r18
 6ba:	80 83       	st	Z, r24
 6bc:	08 95       	ret

000006be <DIO_u8_get_port>:
 6be:	e8 2f       	mov	r30, r24
 6c0:	f0 e0       	ldi	r31, 0x00	; 0
 6c2:	ee 0f       	add	r30, r30
 6c4:	ff 1f       	adc	r31, r31
 6c6:	e0 5a       	subi	r30, 0xA0	; 160
 6c8:	ff 4f       	sbci	r31, 0xFF	; 255
 6ca:	01 90       	ld	r0, Z+
 6cc:	f0 81       	ld	r31, Z
 6ce:	e0 2d       	mov	r30, r0
 6d0:	80 81       	ld	r24, Z
 6d2:	08 95       	ret

000006d4 <DIO_u8_get_pin>:
 6d4:	e8 2f       	mov	r30, r24
 6d6:	f0 e0       	ldi	r31, 0x00	; 0
 6d8:	ee 0f       	add	r30, r30
 6da:	ff 1f       	adc	r31, r31
 6dc:	e0 5a       	subi	r30, 0xA0	; 160
 6de:	ff 4f       	sbci	r31, 0xFF	; 255
 6e0:	01 90       	ld	r0, Z+
 6e2:	f0 81       	ld	r31, Z
 6e4:	e0 2d       	mov	r30, r0
 6e6:	80 81       	ld	r24, Z
 6e8:	90 e0       	ldi	r25, 0x00	; 0
 6ea:	02 c0       	rjmp	.+4      	; 0x6f0 <DIO_u8_get_pin+0x1c>
 6ec:	95 95       	asr	r25
 6ee:	87 95       	ror	r24
 6f0:	6a 95       	dec	r22
 6f2:	e2 f7       	brpl	.-8      	; 0x6ec <DIO_u8_get_pin+0x18>
 6f4:	81 70       	andi	r24, 0x01	; 1
 6f6:	08 95       	ret

000006f8 <_exit>:
 6f8:	f8 94       	cli

000006fa <__stop_program>:
 6fa:	ff cf       	rjmp	.-2      	; 0x6fa <__stop_program>
